target datalayout = "e-m:e-p270:32:32-p271:32:32-p272:64:64-i64:64-i128:128-f80:128-n8:16:32:64-S128"
target triple = "x86_64-pc-linux-gnu"

%struct.strbuf = type { i64, i64, ptr }
%struct.object_id = type { [32 x i8], i32 }

@the_repository = external global ptr, align 8
@strbuf_slopbuf = external global [0 x i8], align 1
@.str.10 = private unnamed_addr constant [3 x i8] c"%s\00", align 1
@.str.34 = private unnamed_addr constant [11 x i8] c"./strbuf.h\00", align 1
@.str.35 = private unnamed_addr constant [30 x i8] c"strbuf_setlen() beyond buffer\00", align 1
@__const.get_branch.sb = private unnamed_addr constant %struct.strbuf { i64 0, i64 0, ptr @strbuf_slopbuf }, align 8
@.str.41 = private unnamed_addr constant [12 x i8] c"refs/heads/\00", align 1
@.str.42 = private unnamed_addr constant [6 x i8] c"refs/\00", align 1
@default_abbrev = external global i32, align 4
@.str.43 = private unnamed_addr constant [14 x i8] c"detached HEAD\00", align 1

; Function Attrs: inlinehint nounwind uwtable
define internal zeroext i1 @skip_prefix(ptr noundef %0, ptr noundef %1, ptr noundef %2) #8 {
  %4 = alloca i1, align 1
  %5 = alloca ptr, align 8
  %6 = alloca ptr, align 8
  %7 = alloca ptr, align 8
  store ptr %0, ptr %5, align 8, !tbaa !9
  store ptr %1, ptr %6, align 8, !tbaa !9
  store ptr %2, ptr %7, align 8, !tbaa !278
  br label %8

8:                                                ; preds = %16, %3
  %9 = load ptr, ptr %6, align 8, !tbaa !9
  %10 = load i8, ptr %9, align 1, !tbaa !30
  %11 = icmp ne i8 %10, 0
  br i1 %11, label %15, label %12

12:                                               ; preds = %8
  %13 = load ptr, ptr %5, align 8, !tbaa !9
  %14 = load ptr, ptr %7, align 8, !tbaa !278
  store ptr %13, ptr %14, align 8, !tbaa !9
  store i1 true, ptr %4, align 1
  br label %27

15:                                               ; preds = %8
  br label %16

16:                                               ; preds = %15
  %17 = load ptr, ptr %5, align 8, !tbaa !9
  %18 = getelementptr inbounds nuw i8, ptr %17, i32 1
  store ptr %18, ptr %5, align 8, !tbaa !9
  %19 = load i8, ptr %17, align 1, !tbaa !30
  %20 = sext i8 %19 to i32
  %21 = load ptr, ptr %6, align 8, !tbaa !9
  %22 = getelementptr inbounds nuw i8, ptr %21, i32 1
  store ptr %22, ptr %6, align 8, !tbaa !9
  %23 = load i8, ptr %21, align 1, !tbaa !30
  %24 = sext i8 %23 to i32
  %25 = icmp eq i32 %20, %24
  br i1 %25, label %8, label %26, !llvm.loop !279

26:                                               ; preds = %16
  store i1 false, ptr %4, align 1
  br label %27

27:                                               ; preds = %26, %12
  %28 = load i1, ptr %4, align 1
  ret i1 %28
}

; Function Attrs: inlinehint nounwind uwtable
define internal void @strbuf_setlen(ptr noundef %0, i64 noundef %1) #8 {
  %3 = alloca ptr, align 8
  %4 = alloca i64, align 8
  store ptr %0, ptr %3, align 8, !tbaa !186
  store i64 %1, ptr %4, align 8, !tbaa !153
  %5 = load i64, ptr %4, align 8, !tbaa !153
  %6 = load ptr, ptr %3, align 8, !tbaa !186
  %7 = getelementptr inbounds nuw %struct.strbuf, ptr %6, i32 0, i32 0
  %8 = load i64, ptr %7, align 8, !tbaa !244
  %9 = icmp ne i64 %8, 0
  br i1 %9, label %10, label %15

10:                                               ; preds = %2
  %11 = load ptr, ptr %3, align 8, !tbaa !186
  %12 = getelementptr inbounds nuw %struct.strbuf, ptr %11, i32 0, i32 0
  %13 = load i64, ptr %12, align 8, !tbaa !244
  %14 = sub i64 %13, 1
  br label %16

15:                                               ; preds = %2
  br label %16

16:                                               ; preds = %15, %10
  %17 = phi i64 [ %14, %10 ], [ 0, %15 ]
  %18 = icmp ugt i64 %5, %17
  br i1 %18, label %19, label %20

19:                                               ; preds = %16
  call void (ptr, i32, ptr, ...) @BUG_fl(ptr noundef @.str.34, i32 noundef 167, ptr noundef @.str.35) #14
  unreachable

20:                                               ; preds = %16
  %21 = load i64, ptr %4, align 8, !tbaa !153
  %22 = load ptr, ptr %3, align 8, !tbaa !186
  %23 = getelementptr inbounds nuw %struct.strbuf, ptr %22, i32 0, i32 1
  store i64 %21, ptr %23, align 8, !tbaa !15
  %24 = load ptr, ptr %3, align 8, !tbaa !186
  %25 = getelementptr inbounds nuw %struct.strbuf, ptr %24, i32 0, i32 2
  %26 = load ptr, ptr %25, align 8, !tbaa !29
  %27 = icmp ne ptr %26, @strbuf_slopbuf
  br i1 %27, label %28, label %34

28:                                               ; preds = %20
  %29 = load ptr, ptr %3, align 8, !tbaa !186
  %30 = getelementptr inbounds nuw %struct.strbuf, ptr %29, i32 0, i32 2
  %31 = load ptr, ptr %30, align 8, !tbaa !29
  %32 = load i64, ptr %4, align 8, !tbaa !153
  %33 = getelementptr inbounds nuw i8, ptr %31, i64 %32
  store i8 0, ptr %33, align 1, !tbaa !30
  br label %35

34:                                               ; preds = %20
  br label %35

35:                                               ; preds = %34, %28
  ret void
}

; Function Attrs: nounwind uwtable
define internal ptr @get_branch(ptr noundef %0, ptr noundef %1) #0 {
  %3 = alloca ptr, align 8
  %4 = alloca ptr, align 8
  %5 = alloca ptr, align 8
  %6 = alloca %struct.strbuf, align 8
  %7 = alloca %struct.object_id, align 4
  %8 = alloca ptr, align 8
  %9 = alloca i32, align 4
  store ptr %0, ptr %4, align 8, !tbaa !189
  store ptr %1, ptr %5, align 8, !tbaa !9
  call void @llvm.lifetime.start.p0(i64 24, ptr %6) #12
  call void @llvm.memcpy.p0.p0.i64(ptr align 8 %6, ptr align 8 @__const.get_branch.sb, i64 24, i1 false)
  call void @llvm.lifetime.start.p0(i64 36, ptr %7) #12
  call void @llvm.lifetime.start.p0(i64 8, ptr %8) #12
  %10 = load ptr, ptr @the_repository, align 8, !tbaa !33
  %11 = load ptr, ptr %4, align 8, !tbaa !189
  %12 = load ptr, ptr %5, align 8, !tbaa !9
  %13 = call ptr (ptr, ptr, ptr, ...) @worktree_git_path(ptr noundef %10, ptr noundef %11, ptr noundef @.str.10, ptr noundef %12)
  %14 = call i64 @strbuf_read_file(ptr noundef %6, ptr noundef %13, i64 noundef 0)
  %15 = icmp sle i64 %14, 0
  br i1 %15, label %16, label %17

16:                                               ; preds = %2
  br label %79

17:                                               ; preds = %2
  br label %18

18:                                               ; preds = %34, %17
  %19 = getelementptr inbounds nuw %struct.strbuf, ptr %6, i32 0, i32 1
  %20 = load i64, ptr %19, align 8, !tbaa !15
  %21 = icmp ne i64 %20, 0
  br i1 %21, label %22, label %32

22:                                               ; preds = %18
  %23 = getelementptr inbounds nuw %struct.strbuf, ptr %6, i32 0, i32 2
  %24 = load ptr, ptr %23, align 8, !tbaa !29
  %25 = getelementptr inbounds nuw %struct.strbuf, ptr %6, i32 0, i32 1
  %26 = load i64, ptr %25, align 8, !tbaa !15
  %27 = sub i64 %26, 1
  %28 = getelementptr inbounds nuw i8, ptr %24, i64 %27
  %29 = load i8, ptr %28, align 1, !tbaa !30
  %30 = sext i8 %29 to i32
  %31 = icmp eq i32 %30, 10
  br label %32

32:                                               ; preds = %22, %18
  %33 = phi i1 [ false, %18 ], [ %31, %22 ]
  br i1 %33, label %34, label %38

34:                                               ; preds = %32
  %35 = getelementptr inbounds nuw %struct.strbuf, ptr %6, i32 0, i32 1
  %36 = load i64, ptr %35, align 8, !tbaa !15
  %37 = sub i64 %36, 1
  call void @strbuf_setlen(ptr noundef %6, i64 noundef %37)
  br label %18, !llvm.loop !198

38:                                               ; preds = %32
  %39 = getelementptr inbounds nuw %struct.strbuf, ptr %6, i32 0, i32 1
  %40 = load i64, ptr %39, align 8, !tbaa !15
  %41 = icmp ne i64 %40, 0
  br i1 %41, label %43, label %42

42:                                               ; preds = %38
  br label %79

43:                                               ; preds = %38
  %44 = getelementptr inbounds nuw %struct.strbuf, ptr %6, i32 0, i32 2
  %45 = load ptr, ptr %44, align 8, !tbaa !29
  %46 = call zeroext i1 @skip_prefix(ptr noundef %45, ptr noundef @.str.41, ptr noundef %8)
  br i1 %46, label %47, label %54

47:                                               ; preds = %43
  %48 = load ptr, ptr %8, align 8, !tbaa !9
  %49 = getelementptr inbounds nuw %struct.strbuf, ptr %6, i32 0, i32 2
  %50 = load ptr, ptr %49, align 8, !tbaa !29
  %51 = ptrtoint ptr %48 to i64
  %52 = ptrtoint ptr %50 to i64
  %53 = sub i64 %51, %52
  call void @strbuf_remove(ptr noundef %6, i64 noundef 0, i64 noundef %53)
  br label %77

54:                                               ; preds = %43
  %55 = getelementptr inbounds nuw %struct.strbuf, ptr %6, i32 0, i32 2
  %56 = load ptr, ptr %55, align 8, !tbaa !29
  %57 = call i32 @starts_with(ptr noundef %56, ptr noundef @.str.42)
  %58 = icmp ne i32 %57, 0
  br i1 %58, label %59, label %60

59:                                               ; preds = %54
  br label %76

60:                                               ; preds = %54
  %61 = getelementptr inbounds nuw %struct.strbuf, ptr %6, i32 0, i32 2
  %62 = load ptr, ptr %61, align 8, !tbaa !29
  %63 = call i32 @get_oid_hex(ptr noundef %62, ptr noundef %7)
  %64 = icmp ne i32 %63, 0
  br i1 %64, label %67, label %65

65:                                               ; preds = %60
  call void @strbuf_setlen(ptr noundef %6, i64 noundef 0)
  %66 = load i32, ptr @default_abbrev, align 4, !tbaa !11
  call void @strbuf_add_unique_abbrev(ptr noundef %6, ptr noundef %7, i32 noundef %66)
  br label %75

67:                                               ; preds = %60
  %68 = getelementptr inbounds nuw %struct.strbuf, ptr %6, i32 0, i32 2
  %69 = load ptr, ptr %68, align 8, !tbaa !29
  %70 = call i32 @strcmp(ptr noundef %69, ptr noundef @.str.43) #13
  %71 = icmp ne i32 %70, 0
  br i1 %71, label %73, label %72

72:                                               ; preds = %67
  br label %79

73:                                               ; preds = %67
  br label %74

74:                                               ; preds = %73
  br label %75

75:                                               ; preds = %74, %65
  br label %76

76:                                               ; preds = %75, %59
  br label %77

77:                                               ; preds = %76, %47
  %78 = call ptr @strbuf_detach(ptr noundef %6, ptr noundef null)
  store ptr %78, ptr %3, align 8
  store i32 1, ptr %9, align 4
  br label %80

79:                                               ; preds = %72, %42, %16
  call void @strbuf_release(ptr noundef %6)
  store ptr null, ptr %3, align 8
  store i32 1, ptr %9, align 4
  br label %80

80:                                               ; preds = %79, %77
  call void @llvm.lifetime.end.p0(i64 8, ptr %8) #12
  call void @llvm.lifetime.end.p0(i64 36, ptr %7) #12
  call void @llvm.lifetime.end.p0(i64 24, ptr %6) #12
  %81 = load ptr, ptr %3, align 8
  ret ptr %81
}