; Function Attrs: nounwind uwtable
define internal fastcc ptr @get_branch(ptr noundef %0, ptr noundef %1) unnamed_addr #0 {
  %3 = alloca %struct.strbuf, align 8
  %4 = alloca %struct.object_id, align 4
  call void @llvm.lifetime.start.p0(i64 24, ptr nonnull %3) #20
  call void @llvm.memcpy.p0.p0.i64(ptr noundef nonnull align 8 dereferenceable(24) %3, ptr noundef nonnull align 8 dereferenceable(24) @__const.wt_longstatus_print_other.buf, i64 24, i1 false)
  call void @llvm.lifetime.start.p0(i64 36, ptr nonnull %4) #20
  %5 = load ptr, ptr @the_repository, align 8, !tbaa !33
  %6 = tail call ptr (ptr, ptr, ptr, ...) @worktree_git_path(ptr noundef %5, ptr noundef %0, ptr noundef nonnull @.str.10, ptr noundef %1) #20
  %7 = call i64 @strbuf_read_file(ptr noundef nonnull %3, ptr noundef %6, i64 noundef 0) #20
  %8 = icmp slt i64 %7, 1
  br i1 %8, label %.critedge.thread, label %.preheader

.preheader:                                       ; preds = %2
  %9 = getelementptr inbounds nuw i8, ptr %3, i64 8
  %10 = load i64, ptr %9, align 8, !tbaa !4
  %.not17 = icmp eq i64 %10, 0
  br i1 %.not17, label %.critedge.thread, label %.lr.ph

.lr.ph:                                           ; preds = %.preheader
  %11 = getelementptr inbounds nuw i8, ptr %3, i64 16
  br label %12

12:                                               ; preds = %.lr.ph, %strbuf_setlen.exit
  %13 = phi i64 [ %10, %.lr.ph ], [ %25, %strbuf_setlen.exit ]
  %14 = load ptr, ptr %11, align 8, !tbaa !25
  %15 = add i64 %13, -1
  %16 = getelementptr inbounds nuw i8, ptr %14, i64 %15
  %17 = load i8, ptr %16, align 1, !tbaa !26
  %18 = icmp eq i8 %17, 10
  br i1 %18, label %19, label %.critedge

19:                                               ; preds = %12
  %20 = load i64, ptr %3, align 8, !tbaa !24
  %spec.select.i = call i64 @llvm.usub.sat.i64(i64 %20, i64 1)
  %21 = icmp ugt i64 %15, %spec.select.i
  br i1 %21, label %22, label %23

22:                                               ; preds = %19
  call void (ptr, i32, ptr, ...) @BUG_fl(ptr noundef nonnull @.str.34, i32 noundef 167, ptr noundef nonnull @.str.35) #22
  unreachable

23:                                               ; preds = %19
  store i64 %15, ptr %9, align 8, !tbaa !4
  %.not9.i = icmp eq ptr %14, @strbuf_slopbuf
  br i1 %.not9.i, label %strbuf_setlen.exit, label %24

24:                                               ; preds = %23
  store i8 0, ptr %16, align 1, !tbaa !26
  %.pre = load i64, ptr %9, align 8, !tbaa !4
  br label %strbuf_setlen.exit

strbuf_setlen.exit:                               ; preds = %23, %24
  %25 = phi i64 [ %15, %23 ], [ %.pre, %24 ]
  %.not = icmp eq i64 %25, 0
  br i1 %.not, label %.critedge.thread, label %12, !llvm.loop !189

.critedge:                                        ; preds = %12, %26
  %.07.i = phi ptr [ %28, %26 ], [ %14, %12 ]
  %.06.i.idx = phi i64 [ %.06.i.add, %26 ], [ 0, %12 ]
  %exitcond = icmp eq i64 %.06.i.idx, 11
  br i1 %exitcond, label %31, label %26

26:                                               ; preds = %.critedge
  %.06.i.ptr = getelementptr inbounds nuw i8, ptr @.str.41, i64 %.06.i.idx
  %27 = load i8, ptr %.06.i.ptr, align 1, !tbaa !26
  %28 = getelementptr inbounds nuw i8, ptr %.07.i, i64 1
  %29 = load i8, ptr %.07.i, align 1, !tbaa !26
  %.06.i.add = add nuw nsw i64 %.06.i.idx, 1
  %30 = icmp eq i8 %29, %27
  br i1 %30, label %.critedge, label %skip_prefix.exit, !llvm.loop !176

31:                                               ; preds = %.critedge
  call void @strbuf_remove(ptr noundef nonnull %3, i64 noundef 0, i64 noundef 11) #20
  br label %43

skip_prefix.exit:                                 ; preds = %26
  %32 = call i32 @starts_with(ptr noundef %14, ptr noundef nonnull @.str.42) #20
  %.not5 = icmp eq i32 %32, 0
  br i1 %.not5, label %33, label %43

33:                                               ; preds = %skip_prefix.exit
  %34 = load ptr, ptr %11, align 8, !tbaa !25
  %35 = call i32 @get_oid_hex(ptr noundef %34, ptr noundef nonnull %4) #20
  %.not6 = icmp eq i32 %35, 0
  br i1 %.not6, label %36, label %40

36:                                               ; preds = %33
  store i64 0, ptr %9, align 8, !tbaa !4
  %37 = load ptr, ptr %11, align 8, !tbaa !25
  %.not9.i9 = icmp eq ptr %37, @strbuf_slopbuf
  br i1 %.not9.i9, label %strbuf_setlen.exit10, label %38

38:                                               ; preds = %36
  store i8 0, ptr %37, align 1, !tbaa !26
  br label %strbuf_setlen.exit10

strbuf_setlen.exit10:                             ; preds = %36, %38
  %39 = load i32, ptr @default_abbrev, align 4, !tbaa !128
  call void @strbuf_add_unique_abbrev(ptr noundef nonnull %3, ptr noundef nonnull %4, i32 noundef %39) #20
  br label %43

40:                                               ; preds = %33
  %41 = load ptr, ptr %11, align 8, !tbaa !25
  %42 = call i32 @strcmp(ptr noundef nonnull dereferenceable(1) %41, ptr noundef nonnull dereferenceable(14) @.str.43) #21
  %.not7 = icmp eq i32 %42, 0
  br i1 %.not7, label %.critedge.thread, label %43

43:                                               ; preds = %skip_prefix.exit, %40, %strbuf_setlen.exit10, %31
  %44 = call ptr @strbuf_detach(ptr noundef nonnull %3, ptr noundef null) #20
  br label %45

.critedge.thread:                                 ; preds = %strbuf_setlen.exit, %.preheader, %40, %2
  call void @strbuf_release(ptr noundef nonnull %3) #20
  br label %45

45:                                               ; preds = %.critedge.thread, %43
  %.0 = phi ptr [ null, %.critedge.thread ], [ %44, %43 ]
  call void @llvm.lifetime.end.p0(i64 36, ptr nonnull %4) #20
  call void @llvm.lifetime.end.p0(i64 24, ptr nonnull %3) #20
  ret ptr %.0
}